; Function Attrs: mustprogress uwtable
define void @_ZN8QuantLib17FuturesRateHelperC2EdRKNS_4DateES3_RKNS_10DayCounterEdNS_7Futures4TypeE(ptr noundef nonnull align 8 dereferenceable(200) %this, double noundef %price, ptr noundef nonnull align 8 dereferenceable(8) %iborStartDate, ptr noundef nonnull align 8 dereferenceable(8) %iborEndDate, ptr noundef nonnull align 8 dereferenceable(16) %dayCounter, double noundef %convAdj, i32 noundef %type) unnamed_addr #7 align 2 personality ptr @__gxx_personality_v0 {
entry:
  %ref.tmp = alloca %"class.QuantLib::RelinkableHandle", align 8
  %agg.tmp = alloca %"class.QuantLib::Handle", align 8
  %ref.tmp2 = alloca %"class.QuantLib::RelinkableHandle", align 8
  call void @llvm.lifetime.start.p0(i64 16, ptr nonnull %ref.tmp) #26
  call void @_ZN8QuantLib15makeQuoteHandleEd(ptr dead_on_unwind nonnull writable sret(%"class.QuantLib::RelinkableHandle") align 8 %ref.tmp, double noundef %price)
  call void @llvm.lifetime.start.p0(i64 16, ptr nonnull %ref.tmp2) #26
  invoke void @_ZN8QuantLib15makeQuoteHandleEd(ptr dead_on_unwind nonnull writable sret(%"class.QuantLib::RelinkableHandle") align 8 %ref.tmp2, double noundef %convAdj)
          to label %invoke.cont unwind label %lpad

invoke.cont:                                      ; preds = %entry
  %0 = load ptr, ptr %ref.tmp2, align 8, !tbaa !43
  store ptr %0, ptr %agg.tmp, align 8, !tbaa !43
  %pn.i.i = getelementptr inbounds nuw i8, ptr %agg.tmp, i64 8
  %pn3.i.i = getelementptr inbounds nuw i8, ptr %ref.tmp2, i64 8
  %1 = load ptr, ptr %pn3.i.i, align 8, !tbaa !37
  store ptr %1, ptr %pn.i.i, align 8, !tbaa !37
  call void @llvm.memset.p0.i64(ptr noundef nonnull align 8 dereferenceable(16) %ref.tmp2, i8 0, i64 16, i1 false)
  invoke void @_ZN8QuantLib17FuturesRateHelperC2ERKNS_6HandleINS_5QuoteEEERKNS_4DateES8_RKNS_10DayCounterES3_NS_7Futures4TypeE(ptr noundef nonnull align 8 dereferenceable(200) %this, ptr noundef nonnull align 8 dereferenceable(16) %ref.tmp, ptr noundef nonnull align 8 dereferenceable(8) %iborStartDate, ptr noundef nonnull align 8 dereferenceable(8) %iborEndDate, ptr noundef nonnull align 8 dereferenceable(16) %dayCounter, ptr noundef nonnull %agg.tmp, i32 noundef %type)
          to label %invoke.cont4 unwind label %lpad3

invoke.cont4:                                     ; preds = %invoke.cont
  %2 = load ptr, ptr %pn.i.i, align 8, !tbaa !37
  %cmp.not.i.i.i = icmp eq ptr %2, null
  br i1 %cmp.not.i.i.i, label %_ZN8QuantLib6HandleINS_5QuoteEED2Ev.exit, label %if.then.i.i.i

if.then.i.i.i:                                    ; preds = %invoke.cont4
  %use_count_.i.i.i.i = getelementptr inbounds nuw i8, ptr %2, i64 8
  %3 = atomicrmw sub ptr %use_count_.i.i.i.i, i32 1 acq_rel, align 4
  %cmp.i.i.i.i = icmp eq i32 %3, 1
  br i1 %cmp.i.i.i.i, label %if.then.i.i.i.i, label %_ZN8QuantLib6HandleINS_5QuoteEED2Ev.exit

if.then.i.i.i.i:                                  ; preds = %if.then.i.i.i
  %vtable.i.i.i.i = load ptr, ptr %2, align 8, !tbaa !35
  %vfn.i.i.i.i = getelementptr inbounds i8, ptr %vtable.i.i.i.i, i64 16
  %4 = load ptr, ptr %vfn.i.i.i.i, align 8
  invoke void %4(ptr noundef nonnull align 8 dereferenceable(16) %2)
          to label %.noexc.i.i.i unwind label %terminate.lpad.i.i.i

.noexc.i.i.i:                                     ; preds = %if.then.i.i.i.i
  %weak_count_.i.i.i.i.i = getelementptr inbounds nuw i8, ptr %2, i64 12
  %5 = atomicrmw sub ptr %weak_count_.i.i.i.i.i, i32 1 acq_rel, align 4
  %cmp.i.i.i.i.i = icmp eq i32 %5, 1
  br i1 %cmp.i.i.i.i.i, label %if.then.i.i.i.i.i, label %_ZN8QuantLib6HandleINS_5QuoteEED2Ev.exit

if.then.i.i.i.i.i:                                ; preds = %.noexc.i.i.i
  %vtable.i.i.i.i.i = load ptr, ptr %2, align 8, !tbaa !35
  %vfn.i.i.i.i.i = getelementptr inbounds i8, ptr %vtable.i.i.i.i.i, i64 24
  %6 = load ptr, ptr %vfn.i.i.i.i.i, align 8
  invoke void %6(ptr noundef nonnull align 8 dereferenceable(16) %2)
          to label %_ZN8QuantLib6HandleINS_5QuoteEED2Ev.exit unwind label %terminate.lpad.i.i.i

terminate.lpad.i.i.i:                             ; preds = %if.then.i.i.i.i.i, %if.then.i.i.i.i
  %7 = landingpad { ptr, i32 }
          catch ptr null
  %8 = extractvalue { ptr, i32 } %7, 0
  call void @__clang_call_terminate(ptr %8) #27
  unreachable

_ZN8QuantLib6HandleINS_5QuoteEED2Ev.exit:         ; preds = %invoke.cont4, %if.then.i.i.i, %.noexc.i.i.i, %if.then.i.i.i.i.i
  %9 = load ptr, ptr %pn3.i.i, align 8, !tbaa !37
  %cmp.not.i.i.i4 = icmp eq ptr %9, null
  br i1 %cmp.not.i.i.i4, label %_ZN8QuantLib6HandleINS_5QuoteEED2Ev.exit18, label %if.then.i.i.i5

if.then.i.i.i5:                                   ; preds = %_ZN8QuantLib6HandleINS_5QuoteEED2Ev.exit
  %use_count_.i.i.i.i6 = getelementptr inbounds nuw i8, ptr %9, i64 8
  %10 = atomicrmw sub ptr %use_count_.i.i.i.i6, i32 1 acq_rel, align 4
  %cmp.i.i.i.i7 = icmp eq i32 %10, 1
  br i1 %cmp.i.i.i.i7, label %if.then.i.i.i.i8, label %_ZN8QuantLib6HandleINS_5QuoteEED2Ev.exit18

if.then.i.i.i.i8:                                 ; preds = %if.then.i.i.i5
  %vtable.i.i.i.i9 = load ptr, ptr %9, align 8, !tbaa !35
  %vfn.i.i.i.i10 = getelementptr inbounds i8, ptr %vtable.i.i.i.i9, i64 16
  %11 = load ptr, ptr %vfn.i.i.i.i10, align 8
  invoke void %11(ptr noundef nonnull align 8 dereferenceable(16) %9)
          to label %.noexc.i.i.i12 unwind label %terminate.lpad.i.i.i11

.noexc.i.i.i12:                                   ; preds = %if.then.i.i.i.i8
  %weak_count_.i.i.i.i.i13 = getelementptr inbounds nuw i8, ptr %9, i64 12
  %12 = atomicrmw sub ptr %weak_count_.i.i.i.i.i13, i32 1 acq_rel, align 4
  %cmp.i.i.i.i.i14 = icmp eq i32 %12, 1
  br i1 %cmp.i.i.i.i.i14, label %if.then.i.i.i.i.i15, label %_ZN8QuantLib6HandleINS_5QuoteEED2Ev.exit18

if.then.i.i.i.i.i15:                              ; preds = %.noexc.i.i.i12
  %vtable.i.i.i.i.i16 = load ptr, ptr %9, align 8, !tbaa !35
  %vfn.i.i.i.i.i17 = getelementptr inbounds i8, ptr %vtable.i.i.i.i.i16, i64 24
  %13 = load ptr, ptr %vfn.i.i.i.i.i17, align 8
  invoke void %13(ptr noundef nonnull align 8 dereferenceable(16) %9)
          to label %_ZN8QuantLib6HandleINS_5QuoteEED2Ev.exit18 unwind label %terminate.lpad.i.i.i11

terminate.lpad.i.i.i11:                           ; preds = %if.then.i.i.i.i.i15, %if.then.i.i.i.i8
  %14 = landingpad { ptr, i32 }
          catch ptr null
  %15 = extractvalue { ptr, i32 } %14, 0
  call void @__clang_call_terminate(ptr %15) #27
  unreachable

_ZN8QuantLib6HandleINS_5QuoteEED2Ev.exit18:       ; preds = %_ZN8QuantLib6HandleINS_5QuoteEED2Ev.exit, %if.then.i.i.i5, %.noexc.i.i.i12, %if.then.i.i.i.i.i15
  call void @llvm.lifetime.end.p0(i64 16, ptr nonnull %ref.tmp2) #26
  %pn.i.i19 = getelementptr inbounds nuw i8, ptr %ref.tmp, i64 8
  %16 = load ptr, ptr %pn.i.i19, align 8, !tbaa !37
  %cmp.not.i.i.i20 = icmp eq ptr %16, null
  br i1 %cmp.not.i.i.i20, label %_ZN8QuantLib6HandleINS_5QuoteEED2Ev.exit34, label %if.then.i.i.i21

if.then.i.i.i21:                                  ; preds = %_ZN8QuantLib6HandleINS_5QuoteEED2Ev.exit18
  %use_count_.i.i.i.i22 = getelementptr inbounds nuw i8, ptr %16, i64 8
  %17 = atomicrmw sub ptr %use_count_.i.i.i.i22, i32 1 acq_rel, align 4
  %cmp.i.i.i.i23 = icmp eq i32 %17, 1
  br i1 %cmp.i.i.i.i23, label %if.then.i.i.i.i24, label %_ZN8QuantLib6HandleINS_5QuoteEED2Ev.exit34

if.then.i.i.i.i24:                                ; preds = %if.then.i.i.i21
  %vtable.i.i.i.i25 = load ptr, ptr %16, align 8, !tbaa !35
  %vfn.i.i.i.i26 = getelementptr inbounds i8, ptr %vtable.i.i.i.i25, i64 16
  %18 = load ptr, ptr %vfn.i.i.i.i26, align 8
  invoke void %18(ptr noundef nonnull align 8 dereferenceable(16) %16)
          to label %.noexc.i.i.i28 unwind label %terminate.lpad.i.i.i27

.noexc.i.i.i28:                                   ; preds = %if.then.i.i.i.i24
  %weak_count_.i.i.i.i.i29 = getelementptr inbounds nuw i8, ptr %16, i64 12
  %19 = atomicrmw sub ptr %weak_count_.i.i.i.i.i29, i32 1 acq_rel, align 4
  %cmp.i.i.i.i.i30 = icmp eq i32 %19, 1
  br i1 %cmp.i.i.i.i.i30, label %if.then.i.i.i.i.i31, label %_ZN8QuantLib6HandleINS_5QuoteEED2Ev.exit34

if.then.i.i.i.i.i31:                              ; preds = %.noexc.i.i.i28
  %vtable.i.i.i.i.i32 = load ptr, ptr %16, align 8, !tbaa !35
  %vfn.i.i.i.i.i33 = getelementptr inbounds i8, ptr %vtable.i.i.i.i.i32, i64 24
  %20 = load ptr, ptr %vfn.i.i.i.i.i33, align 8
  invoke void %20(ptr noundef nonnull align 8 dereferenceable(16) %16)
          to label %_ZN8QuantLib6HandleINS_5QuoteEED2Ev.exit34 unwind label %terminate.lpad.i.i.i27

terminate.lpad.i.i.i27:                           ; preds = %if.then.i.i.i.i.i31, %if.then.i.i.i.i24
  %21 = landingpad { ptr, i32 }
          catch ptr null
  %22 = extractvalue { ptr, i32 } %21, 0
  call void @__clang_call_terminate(ptr %22) #27
  unreachable

_ZN8QuantLib6HandleINS_5QuoteEED2Ev.exit34:       ; preds = %_ZN8QuantLib6HandleINS_5QuoteEED2Ev.exit18, %if.then.i.i.i21, %.noexc.i.i.i28, %if.then.i.i.i.i.i31
  call void @llvm.lifetime.end.p0(i64 16, ptr nonnull %ref.tmp) #26
  ret void

lpad:                                             ; preds = %entry
  %23 = landingpad { ptr, i32 }
          cleanup
  br label %ehcleanup

lpad3:                                            ; preds = %invoke.cont
  %24 = landingpad { ptr, i32 }
          cleanup
  call void @_ZN8QuantLib6HandleINS_5QuoteEED2Ev(ptr noundef nonnull align 8 dereferenceable(16) %agg.tmp) #26
  call void @_ZN8QuantLib6HandleINS_5QuoteEED2Ev(ptr noundef nonnull align 8 dereferenceable(16) %ref.tmp2) #26
  br label %ehcleanup

ehcleanup:                                        ; preds = %lpad3, %lpad
  %.pn = phi { ptr, i32 } [ %24, %lpad3 ], [ %23, %lpad ]
  call void @llvm.lifetime.end.p0(i64 16, ptr nonnull %ref.tmp2) #26
  call void @_ZN8QuantLib6HandleINS_5QuoteEED2Ev(ptr noundef nonnull align 8 dereferenceable(16) %ref.tmp) #26
  call void @llvm.lifetime.end.p0(i64 16, ptr nonnull %ref.tmp) #26
  resume { ptr, i32 } %.pn
}